; Function Attrs: mustprogress uwtable
define dso_local void @_ZN11V3LexerBase19yypush_buffer_stateEP15yy_buffer_state(ptr noundef nonnull align 8 dereferenceable(732) %0, ptr noundef %1) local_unnamed_addr #4 align 2 {
  %3 = icmp eq ptr %1, null
  br i1 %3, label %87, label %4

4:                                                ; preds = %2
  %5 = getelementptr inbounds i8, ptr %0, i64 648
  %6 = load ptr, ptr %5, align 8
  %.not.i = icmp eq ptr %6, null
  br i1 %.not.i, label %7, label %17

7:                                                ; preds = %4
  %8 = tail call noalias noundef dereferenceable_or_null(8) ptr @malloc(i64 noundef 8) #31
  store ptr %8, ptr %5, align 8
  %.not7.i = icmp eq ptr %8, null
  br i1 %.not7.i, label %9, label %13

9:                                                ; preds = %7
  %10 = load ptr, ptr %0, align 8
  %11 = getelementptr inbounds i8, ptr %10, i64 112
  %12 = load ptr, ptr %11, align 8
  tail call void %12(ptr noundef nonnull align 8 dereferenceable(732) %0, ptr noundef nonnull @.str.29)
  %.pre10.i = load ptr, ptr %5, align 8
  br label %13

13:                                               ; preds = %9, %7
  %14 = phi ptr [ %.pre10.i, %9 ], [ %8, %7 ]
  store i64 0, ptr %14, align 8
  %15 = getelementptr inbounds i8, ptr %0, i64 640
  store i64 1, ptr %15, align 8
  %16 = getelementptr inbounds i8, ptr %0, i64 632
  store i64 0, ptr %16, align 8
  br label %_ZN11V3LexerBase21yyensure_buffer_stackEv.exit

17:                                               ; preds = %4
  %18 = getelementptr inbounds i8, ptr %0, i64 632
  %19 = load i64, ptr %18, align 8
  %20 = getelementptr inbounds i8, ptr %0, i64 640
  %21 = load i64, ptr %20, align 8
  %22 = add i64 %21, -1
  %.not8.i = icmp ult i64 %19, %22
  br i1 %.not8.i, label %_ZN11V3LexerBase21yyensure_buffer_stackEv.exit, label %23

23:                                               ; preds = %17
  %24 = add i64 %21, 8
  %25 = shl i64 %24, 3
  %26 = tail call noalias noundef ptr @realloc(ptr noundef nonnull %6, i64 noundef %25) #32
  store ptr %26, ptr %5, align 8
  %.not9.i = icmp eq ptr %26, null
  br i1 %.not9.i, label %27, label %31

27:                                               ; preds = %23
  %28 = load ptr, ptr %0, align 8
  %29 = getelementptr inbounds i8, ptr %28, i64 112
  %30 = load ptr, ptr %29, align 8
  tail call void %30(ptr noundef nonnull align 8 dereferenceable(732) %0, ptr noundef nonnull @.str.29)
  %.pre.i = load ptr, ptr %5, align 8
  br label %31

31:                                               ; preds = %27, %23
  %32 = phi ptr [ %.pre.i, %27 ], [ %26, %23 ]
  %33 = load i64, ptr %20, align 8
  %34 = getelementptr inbounds ptr, ptr %32, i64 %33
  tail call void @llvm.memset.p0.i64(ptr noundef nonnull align 8 dereferenceable(64) %34, i8 0, i64 64, i1 false)
  store i64 %24, ptr %20, align 8
  %.pre = load i64, ptr %18, align 8
  br label %_ZN11V3LexerBase21yyensure_buffer_stackEv.exit

_ZN11V3LexerBase21yyensure_buffer_stackEv.exit:   ; preds = %13, %17, %31
  %35 = phi i64 [ 0, %13 ], [ %19, %17 ], [ %.pre, %31 ]
  %36 = load ptr, ptr %5, align 8, !nonnull !20, !noundef !20
  %37 = getelementptr inbounds i8, ptr %0, i64 632
  %38 = getelementptr inbounds ptr, ptr %36, i64 %35
  %39 = load ptr, ptr %38, align 8
  %40 = icmp eq ptr %39, null
  br i1 %40, label %.critedge9, label %.critedge

.critedge:                                        ; preds = %_ZN11V3LexerBase21yyensure_buffer_stackEv.exit
  %41 = getelementptr inbounds i8, ptr %0, i64 600
  %42 = load i8, ptr %41, align 8
  %43 = getelementptr inbounds i8, ptr %0, i64 608
  %44 = load ptr, ptr %43, align 8
  store i8 %42, ptr %44, align 1
  %45 = load ptr, ptr %43, align 8
  %46 = load ptr, ptr %5, align 8
  %47 = load i64, ptr %37, align 8
  %48 = getelementptr inbounds ptr, ptr %46, i64 %47
  %49 = load ptr, ptr %48, align 8
  %50 = getelementptr inbounds i8, ptr %49, i64 16
  store ptr %45, ptr %50, align 8
  %51 = getelementptr inbounds i8, ptr %0, i64 604
  %52 = load i32, ptr %51, align 4
  %53 = load ptr, ptr %5, align 8
  %54 = load i64, ptr %37, align 8
  %55 = getelementptr inbounds ptr, ptr %53, i64 %54
  %56 = load ptr, ptr %55, align 8
  %57 = getelementptr inbounds i8, ptr %56, i64 28
  store i32 %52, ptr %57, align 4
  %.pr.pre = load ptr, ptr %5, align 8
  %.pre12 = load i64, ptr %37, align 8
  %.phi.trans.insert13 = getelementptr inbounds ptr, ptr %.pr.pre, i64 %.pre12
  %.pre14 = load ptr, ptr %.phi.trans.insert13, align 8
  %58 = icmp eq ptr %.pre14, null
  br i1 %58, label %.critedge9, label %59

59:                                               ; preds = %.critedge
  %60 = add i64 %.pre12, 1
  store i64 %60, ptr %37, align 8
  br label %.critedge9

.critedge9:                                       ; preds = %_ZN11V3LexerBase21yyensure_buffer_stackEv.exit, %59, %.critedge
  %.pr16 = phi ptr [ %.pr.pre, %59 ], [ %.pr.pre, %.critedge ], [ %36, %_ZN11V3LexerBase21yyensure_buffer_stackEv.exit ]
  %61 = phi i64 [ %60, %59 ], [ %.pre12, %.critedge ], [ %35, %_ZN11V3LexerBase21yyensure_buffer_stackEv.exit ]
  %62 = getelementptr inbounds ptr, ptr %.pr16, i64 %61
  store ptr %1, ptr %62, align 8
  %63 = load ptr, ptr %5, align 8
  %64 = load i64, ptr %37, align 8
  %65 = getelementptr inbounds ptr, ptr %63, i64 %64
  %66 = load ptr, ptr %65, align 8
  %67 = getelementptr inbounds i8, ptr %66, i64 28
  %68 = load i32, ptr %67, align 4
  %69 = getelementptr inbounds i8, ptr %0, i64 604
  store i32 %68, ptr %69, align 4
  %70 = load ptr, ptr %65, align 8
  %71 = getelementptr inbounds i8, ptr %70, i64 16
  %72 = load ptr, ptr %71, align 8
  %73 = getelementptr inbounds i8, ptr %0, i64 608
  store ptr %72, ptr %73, align 8
  %74 = getelementptr inbounds i8, ptr %0, i64 8
  store ptr %72, ptr %74, align 8
  %75 = getelementptr inbounds i8, ptr %0, i64 48
  %76 = load ptr, ptr %75, align 8
  %77 = getelementptr i8, ptr %76, i64 -24
  %78 = load i64, ptr %77, align 8
  %79 = getelementptr inbounds i8, ptr %75, i64 %78
  %80 = load ptr, ptr %65, align 8
  %81 = load ptr, ptr %80, align 8
  %82 = tail call noundef ptr @_ZNSt9basic_iosIcSt11char_traitsIcEE5rdbufEPSt15basic_streambufIcS1_E(ptr noundef nonnull align 8 dereferenceable(264) %79, ptr noundef %81)
  %83 = load ptr, ptr %73, align 8
  %84 = load i8, ptr %83, align 1
  %85 = getelementptr inbounds i8, ptr %0, i64 600
  store i8 %84, ptr %85, align 8
  %86 = getelementptr inbounds i8, ptr %0, i64 624
  store i32 1, ptr %86, align 8
  br label %87

87:                                               ; preds = %2, %.critedge9
  ret void
}